; Function Attrs: nounwind uwtable
define dso_local noundef zeroext i1 @range_table_walker_impl(ptr noundef readonly captures(address_is_null) %0, ptr noundef readonly captures(none) %1, ptr noundef %2, i32 noundef %3) local_unnamed_addr #0 {
  %5 = getelementptr inbounds nuw i8, ptr %0, i64 4
  %.not = icmp eq ptr %0, null
  br i1 %.not, label %.critedge, label %.lr.ph

.lr.ph:                                           ; preds = %4
  %6 = getelementptr inbounds nuw i8, ptr %0, i64 16
  %7 = load i32, ptr %5, align 4
  %8 = icmp sgt i32 %7, 0
  br i1 %8, label %.lr.ph29, label %.critedge

9:                                                ; preds = %.lr.ph29
  %indvars.iv.next = add nuw nsw i64 %indvars.iv, 1
  %10 = load i32, ptr %5, align 4
  %11 = sext i32 %10 to i64
  %12 = icmp slt i64 %indvars.iv.next, %11
  br i1 %12, label %.lr.ph29, label %.critedge

.lr.ph29:                                         ; preds = %.lr.ph, %9
  %indvars.iv = phi i64 [ %indvars.iv.next, %9 ], [ 0, %.lr.ph ]
  %13 = load ptr, ptr %6, align 8
  %14 = getelementptr inbounds nuw %union.ListCell, ptr %13, i64 %indvars.iv
  %15 = load ptr, ptr %14, align 8
  %16 = tail call zeroext i1 @range_table_entry_walker_impl(ptr noundef %15, ptr noundef %1, ptr noundef %2, i32 noundef %3)
  br i1 %16, label %.critedge, label %9

.critedge:                                        ; preds = %.lr.ph29, %9, %.lr.ph, %4
  %.3 = phi i1 [ false, %4 ], [ false, %.lr.ph ], [ %16, %9 ], [ %16, %.lr.ph29 ]
  ret i1 %.3
}